; ModuleID = '31/146.c'
source_filename = "31/146.c"
target datalayout = "e-m:e-p270:32:32-p271:32:32-p272:64:64-i64:64-f80:128-n8:16:32:64-S128"
target triple = "x86_64-pc-linux-gnu"

%struct.student = type { [100 x i8], %struct.student* }

@.str = private unnamed_addr constant [4 x i8] c"end\00", align 1
@.str.1 = private unnamed_addr constant [4 x i8] c"%s\0A\00", align 1

; Function Attrs: noinline nounwind uwtable
define dso_local %struct.student* @creat() #0 {
  %1 = alloca %struct.student*, align 8
  %2 = alloca %struct.student*, align 8
  %3 = alloca %struct.student*, align 8
  %4 = alloca i32, align 4
  store i32 0, i32* %4, align 4
  %5 = call noalias i8* @malloc(i64 112) #4
  %6 = bitcast i8* %5 to %struct.student*
  store %struct.student* %6, %struct.student** %1, align 8
  %7 = load %struct.student*, %struct.student** %1, align 8
  %8 = getelementptr inbounds %struct.student, %struct.student* %7, i32 0, i32 0
  %9 = getelementptr inbounds [100 x i8], [100 x i8]* %8, i64 0, i64 0
  %10 = call i32 (i8*, ...) bitcast (i32 (...)* @gets to i32 (i8*, ...)*)(i8* %9)
  %11 = load %struct.student*, %struct.student** %1, align 8
  store %struct.student* %11, %struct.student** %3, align 8
  %12 = load %struct.student*, %struct.student** %1, align 8
  %13 = getelementptr inbounds %struct.student, %struct.student* %12, i32 0, i32 1
  store %struct.student* null, %struct.student** %13, align 8
  br label %14

14:                                               ; preds = %31, %0
  %15 = load i32, i32* %4, align 4
  %16 = icmp sgt i32 %15, 0
  br i1 %16, label %17, label %22

17:                                               ; preds = %14
  %18 = load %struct.student*, %struct.student** %3, align 8
  %19 = load %struct.student*, %struct.student** %2, align 8
  %20 = getelementptr inbounds %struct.student, %struct.student* %19, i32 0, i32 1
  store %struct.student* %18, %struct.student** %20, align 8
  %21 = load %struct.student*, %struct.student** %2, align 8
  store %struct.student* %21, %struct.student** %3, align 8
  br label %22

22:                                               ; preds = %17, %14
  %23 = call noalias i8* @malloc(i64 112) #4
  %24 = bitcast i8* %23 to %struct.student*
  store %struct.student* %24, %struct.student** %2, align 8
  %25 = load %struct.student*, %struct.student** %2, align 8
  %26 = getelementptr inbounds %struct.student, %struct.student* %25, i32 0, i32 0
  %27 = getelementptr inbounds [100 x i8], [100 x i8]* %26, i64 0, i64 0
  %28 = call i32 (i8*, ...) bitcast (i32 (...)* @gets to i32 (i8*, ...)*)(i8* %27)
  %29 = load i32, i32* %4, align 4
  %30 = add nsw i32 %29, 1
  store i32 %30, i32* %4, align 4
  br label %31

31:                                               ; preds = %22
  %32 = load %struct.student*, %struct.student** %2, align 8
  %33 = getelementptr inbounds %struct.student, %struct.student* %32, i32 0, i32 0
  %34 = getelementptr inbounds [100 x i8], [100 x i8]* %33, i64 0, i64 0
  %35 = call i32 @strcmp(i8* %34, i8* getelementptr inbounds ([4 x i8], [4 x i8]* @.str, i64 0, i64 0)) #5
  %36 = icmp ne i32 %35, 0
  br i1 %36, label %14, label %37

37:                                               ; preds = %31
  %38 = load %struct.student*, %struct.student** %3, align 8
  ret %struct.student* %38
}

; Function Attrs: nounwind
declare dso_local noalias i8* @malloc(i64) #1

declare dso_local i32 @gets(...) #2

; Function Attrs: nounwind readonly
declare dso_local i32 @strcmp(i8*, i8*) #3

; Function Attrs: noinline nounwind uwtable
define dso_local void @print(%struct.student* %0) #0 {
  %2 = alloca %struct.student*, align 8
  %3 = alloca %struct.student*, align 8
  store %struct.student* %0, %struct.student** %2, align 8
  %4 = load %struct.student*, %struct.student** %2, align 8
  store %struct.student* %4, %struct.student** %3, align 8
  br label %5

5:                                                ; preds = %13, %1
  %6 = load %struct.student*, %struct.student** %3, align 8
  %7 = getelementptr inbounds %struct.student, %struct.student* %6, i32 0, i32 0
  %8 = getelementptr inbounds [100 x i8], [100 x i8]* %7, i64 0, i64 0
  %9 = call i32 (i8*, ...) @printf(i8* getelementptr inbounds ([4 x i8], [4 x i8]* @.str.1, i64 0, i64 0), i8* %8)
  %10 = load %struct.student*, %struct.student** %3, align 8
  %11 = getelementptr inbounds %struct.student, %struct.student* %10, i32 0, i32 1
  %12 = load %struct.student*, %struct.student** %11, align 8
  store %struct.student* %12, %struct.student** %3, align 8
  br label %13

13:                                               ; preds = %5
  %14 = load %struct.student*, %struct.student** %3, align 8
  %15 = icmp ne %struct.student* %14, null
  br i1 %15, label %5, label %16

16:                                               ; preds = %13
  ret void
}

declare dso_local i32 @printf(i8*, ...) #2

; Function Attrs: noinline nounwind uwtable
define dso_local void @main() #0 {
  %1 = alloca %struct.student*, align 8
  %2 = call %struct.student* @creat()
  store %struct.student* %2, %struct.student** %1, align 8
  %3 = load %struct.student*, %struct.student** %1, align 8
  call void @print(%struct.student* %3)
  ret void
}


!llvm.module.flags = !{!0}
!llvm.ident = !{!1}

!0 = !{i32 1, !"wchar_size", i32 4}
!1 = !{!"clang version 10.0.0-4ubuntu1 "}
