; ModuleID = 'source-C-CXX/30/146.c'
source_filename = "source-C-CXX/30/146.c"
target datalayout = "e-m:e-p270:32:32-p271:32:32-p272:64:64-i64:64-f80:128-n8:16:32:64-S128"
target triple = "x86_64-pc-linux-gnu"

%struct.student = type { [100 x i8], %struct.student* }

@.str = private unnamed_addr constant [4 x i8] c"end\00", align 1

; Function Attrs: nounwind sspstrong uwtable
define dso_local %struct.student* @creat() local_unnamed_addr #0 {
  %1 = tail call noalias align 16 dereferenceable_or_null(112) i8* @malloc(i64 112) #6
  %2 = bitcast i8* %1 to %struct.student*
  %3 = getelementptr inbounds %struct.student, %struct.student* %2, i64 0, i32 0, i64 0
  %4 = tail call i32 (i8*, ...) bitcast (i32 (...)* @gets to i32 (i8*, ...)*)(i8* %3) #6
  %5 = getelementptr inbounds %struct.student, %struct.student* %2, i64 0, i32 1
  store %struct.student* null, %struct.student** %5, align 8, !tbaa !5
  %6 = tail call noalias align 16 dereferenceable_or_null(112) i8* @malloc(i64 112) #6
  %7 = bitcast i8* %6 to %struct.student*
  %8 = getelementptr inbounds %struct.student, %struct.student* %7, i64 0, i32 0, i64 0
  %9 = tail call i32 (i8*, ...) bitcast (i32 (...)* @gets to i32 (i8*, ...)*)(i8* %8) #6
  %10 = tail call i32 @strcmp(i8* noundef nonnull dereferenceable(1) %8, i8* noundef nonnull dereferenceable(4) getelementptr inbounds ([4 x i8], [4 x i8]* @.str, i64 0, i64 0)) #7
  %11 = icmp eq i32 %10, 0
  br i1 %11, label %22, label %12

12:                                               ; preds = %0, %12
  %13 = phi %struct.student* [ %17, %12 ], [ %7, %0 ]
  %14 = phi %struct.student* [ %13, %12 ], [ %2, %0 ]
  %15 = getelementptr inbounds %struct.student, %struct.student* %13, i64 0, i32 1
  store %struct.student* %14, %struct.student** %15, align 8, !tbaa !5
  %16 = tail call noalias align 16 dereferenceable_or_null(112) i8* @malloc(i64 112) #6
  %17 = bitcast i8* %16 to %struct.student*
  %18 = getelementptr inbounds %struct.student, %struct.student* %17, i64 0, i32 0, i64 0
  %19 = tail call i32 (i8*, ...) bitcast (i32 (...)* @gets to i32 (i8*, ...)*)(i8* %18) #6
  %20 = tail call i32 @strcmp(i8* noundef nonnull dereferenceable(1) %18, i8* noundef nonnull dereferenceable(4) getelementptr inbounds ([4 x i8], [4 x i8]* @.str, i64 0, i64 0)) #7
  %21 = icmp eq i32 %20, 0
  br i1 %21, label %22, label %12, !llvm.loop !10

22:                                               ; preds = %12, %0
  %23 = phi %struct.student* [ %2, %0 ], [ %13, %12 ]
  ret %struct.student* %23
}

; Function Attrs: inaccessiblememonly mustprogress nofree nounwind willreturn
declare noalias noundef align 16 i8* @malloc(i64 noundef) local_unnamed_addr #1

declare i32 @gets(...) local_unnamed_addr #2

; Function Attrs: argmemonly mustprogress nofree nounwind readonly willreturn
declare i32 @strcmp(i8* nocapture, i8* nocapture) local_unnamed_addr #3

; Function Attrs: nofree nounwind sspstrong uwtable
define dso_local void @print(%struct.student* nocapture readonly %0) local_unnamed_addr #4 {
  br label %2

2:                                                ; preds = %2, %1
  %3 = phi %struct.student* [ %0, %1 ], [ %7, %2 ]
  %4 = getelementptr inbounds %struct.student, %struct.student* %3, i64 0, i32 0, i64 0
  %5 = tail call i32 @puts(i8* nonnull dereferenceable(1) %4)
  %6 = getelementptr inbounds %struct.student, %struct.student* %3, i64 0, i32 1
  %7 = load %struct.student*, %struct.student** %6, align 8, !tbaa !5
  %8 = icmp eq %struct.student* %7, null
  br i1 %8, label %9, label %2, !llvm.loop !13

9:                                                ; preds = %2
  ret void
}

; Function Attrs: nounwind sspstrong uwtable
define dso_local void @main() local_unnamed_addr #0 {
  %1 = tail call noalias align 16 dereferenceable_or_null(112) i8* @malloc(i64 112) #6
  %2 = bitcast i8* %1 to %struct.student*
  %3 = getelementptr inbounds %struct.student, %struct.student* %2, i64 0, i32 0, i64 0
  %4 = tail call i32 (i8*, ...) bitcast (i32 (...)* @gets to i32 (i8*, ...)*)(i8* %3) #6
  %5 = getelementptr inbounds %struct.student, %struct.student* %2, i64 0, i32 1
  store %struct.student* null, %struct.student** %5, align 8, !tbaa !5
  %6 = tail call noalias align 16 dereferenceable_or_null(112) i8* @malloc(i64 112) #6
  %7 = bitcast i8* %6 to %struct.student*
  %8 = getelementptr inbounds %struct.student, %struct.student* %7, i64 0, i32 0, i64 0
  %9 = tail call i32 (i8*, ...) bitcast (i32 (...)* @gets to i32 (i8*, ...)*)(i8* %8) #6
  %10 = tail call i32 @strcmp(i8* noundef nonnull dereferenceable(1) %8, i8* noundef nonnull dereferenceable(4) getelementptr inbounds ([4 x i8], [4 x i8]* @.str, i64 0, i64 0)) #7
  %11 = icmp eq i32 %10, 0
  br i1 %11, label %22, label %12

12:                                               ; preds = %0, %12
  %13 = phi %struct.student* [ %17, %12 ], [ %7, %0 ]
  %14 = phi %struct.student* [ %13, %12 ], [ %2, %0 ]
  %15 = getelementptr inbounds %struct.student, %struct.student* %13, i64 0, i32 1
  store %struct.student* %14, %struct.student** %15, align 8, !tbaa !5
  %16 = tail call noalias align 16 dereferenceable_or_null(112) i8* @malloc(i64 112) #6
  %17 = bitcast i8* %16 to %struct.student*
  %18 = getelementptr inbounds %struct.student, %struct.student* %17, i64 0, i32 0, i64 0
  %19 = tail call i32 (i8*, ...) bitcast (i32 (...)* @gets to i32 (i8*, ...)*)(i8* %18) #6
  %20 = tail call i32 @strcmp(i8* noundef nonnull dereferenceable(1) %18, i8* noundef nonnull dereferenceable(4) getelementptr inbounds ([4 x i8], [4 x i8]* @.str, i64 0, i64 0)) #7
  %21 = icmp eq i32 %20, 0
  br i1 %21, label %22, label %12, !llvm.loop !10

22:                                               ; preds = %12, %0
  %23 = phi %struct.student* [ %2, %0 ], [ %13, %12 ]
  br label %24

24:                                               ; preds = %22, %24
  %25 = phi %struct.student* [ %29, %24 ], [ %23, %22 ]
  %26 = getelementptr inbounds %struct.student, %struct.student* %25, i64 0, i32 0, i64 0
  %27 = tail call i32 @puts(i8* nonnull dereferenceable(1) %26) #6
  %28 = getelementptr inbounds %struct.student, %struct.student* %25, i64 0, i32 1
  %29 = load %struct.student*, %struct.student** %28, align 8, !tbaa !5
  %30 = icmp eq %struct.student* %29, null
  br i1 %30, label %31, label %24, !llvm.loop !13

31:                                               ; preds = %24
  ret void
}

; Function Attrs: nofree nounwind
declare noundef i32 @puts(i8* nocapture noundef readonly) local_unnamed_addr #5


!llvm.module.flags = !{!0, !1, !2, !3}
!llvm.ident = !{!4}

!0 = !{i32 1, !"wchar_size", i32 4}
!1 = !{i32 7, !"PIC Level", i32 2}
!2 = !{i32 7, !"PIE Level", i32 2}
!3 = !{i32 7, !"uwtable", i32 1}
!4 = !{!"clang version 13.0.0"}
!5 = !{!6, !9, i64 104}
!6 = !{!"student", !7, i64 0, !9, i64 104}
!7 = !{!"omnipotent char", !8, i64 0}
!8 = !{!"Simple C/C++ TBAA"}
!9 = !{!"any pointer", !7, i64 0}
!10 = distinct !{!10, !11, !12}
!11 = !{!"llvm.loop.mustprogress"}
!12 = !{!"llvm.loop.peeled.count", i32 1}
!13 = distinct !{!13, !11}
